; Function Attrs: mustprogress nofree norecurse nosync nounwind willreturn memory(read, inaccessiblemem: none) uwtable
define dso_local noundef zeroext i1 @_ZNK18FunctionInvocation17has_simple_paramsEv(ptr noundef nonnull readonly align 8 captures(none) dereferenceable(56) %0) local_unnamed_addr #8 align 2 {
  %2 = getelementptr inbounds nuw i8, ptr %0, i64 16
  %3 = getelementptr inbounds nuw i8, ptr %0, i64 24
  %4 = load ptr, ptr %3, align 8, !tbaa !111
  %5 = load ptr, ptr %2, align 8, !tbaa !113
  %6 = icmp eq ptr %4, %5
  br i1 %6, label %._crit_edge, label %.lr.ph.preheader

.lr.ph.preheader:                                 ; preds = %1
  %7 = ptrtoint ptr %4 to i64
  %8 = ptrtoint ptr %5 to i64
  %9 = sub i64 %7, %8
  %10 = ashr exact i64 %9, 3
  %umax = tail call i64 @llvm.umax.i64(i64 %10, i64 1)
  br label %.lr.ph

.lr.ph:                                           ; preds = %.lr.ph, %.lr.ph.preheader
  %.078 = phi i64 [ 0, %.lr.ph.preheader ], [ %15, %.lr.ph ]
  %11 = getelementptr inbounds nuw ptr, ptr %5, i64 %.078
  %12 = load ptr, ptr %11, align 8, !tbaa !99
  %13 = getelementptr inbounds nuw i8, ptr %12, i64 8
  %14 = load i32, ptr %13, align 8, !tbaa !115
  %.not.not = icmp ne i32 %14, 2
  %15 = add nuw i64 %.078, 1
  %exitcond.not = icmp ne i64 %15, %umax
  %or.cond.not = select i1 %.not.not, i1 %exitcond.not, i1 false
  br i1 %or.cond.not, label %.lr.ph, label %._crit_edge, !llvm.loop !132

._crit_edge:                                      ; preds = %.lr.ph, %1
  %.lcssa = phi i1 [ true, %1 ], [ %.not.not, %.lr.ph ]
  ret i1 %.lcssa
}